; Function Attrs: mustprogress uwtable
define internal void @_ZNSt17_Function_handlerIFN5Yosys5SExprENS0_10Functional4NodeEEZN12_GLOBAL__N_19SmtModule10write_evalERNS0_11SExprWriterEEUlS3_E0_E9_M_invokeERKSt9_Any_dataOS3_(ptr dead_on_unwind noalias writable sret(%"class.Yosys::SExpr") align 8 %0, ptr noundef nonnull readonly align 8 captures(none) dereferenceable(16) %1, ptr noundef nonnull readonly align 8 captures(none) dereferenceable(16) %2) #5 align 2 {
  %.val = load ptr, ptr %1, align 8, !tbaa !162
  %4 = getelementptr i8, ptr %.val, i64 8
  %.val2 = load ptr, ptr %4, align 8
  %5 = getelementptr i8, ptr %.val, i64 16
  %.val3 = load ptr, ptr %5, align 8, !tbaa !687
  %.val4 = load ptr, ptr %2, align 8, !tbaa !512
  %6 = getelementptr inbounds nuw i8, ptr %2, i64 8
  %.val5 = load i32, ptr %6, align 8, !tbaa !69
  tail call fastcc void @_ZZN12_GLOBAL__N_19SmtModule10write_evalERN5Yosys11SExprWriterEENKUlNS1_10Functional4NodeEE0_clES5_(ptr dead_on_unwind noalias writable align 8 %0, ptr %.val2, ptr %.val3, ptr %.val4, i32 %.val5)
  ret void
}